; Function Attrs: mustprogress nounwind uwtable
define internal fastcc void @_ZL31frontend_verilog_yy_init_bufferP15yy_buffer_stateP8_IO_FILE(ptr noundef captures(address) %0, ptr noundef %1) unnamed_addr #3 {
  %3 = tail call ptr @__errno_location() #47
  %4 = load i32, ptr %3, align 4, !tbaa !28
  %.not.i = icmp eq ptr %0, null
  %.pr.pre = load ptr, ptr @_ZL15yy_buffer_stack, align 8, !tbaa !32
  br i1 %.not.i, label %_Z32frontend_verilog_yy_flush_bufferP15yy_buffer_state.exit, label %5

5:                                                ; preds = %2
  %6 = getelementptr inbounds nuw i8, ptr %0, i64 28
  store i32 0, ptr %6, align 4, !tbaa !42
  %7 = getelementptr inbounds nuw i8, ptr %0, i64 8
  %8 = load ptr, ptr %7, align 8, !tbaa !40
  store i8 0, ptr %8, align 1, !tbaa !19
  %9 = load ptr, ptr %7, align 8, !tbaa !40
  %10 = getelementptr inbounds nuw i8, ptr %9, i64 1
  store i8 0, ptr %10, align 1, !tbaa !19
  %11 = load ptr, ptr %7, align 8, !tbaa !40
  %12 = getelementptr inbounds nuw i8, ptr %0, i64 16
  store ptr %11, ptr %12, align 8, !tbaa !43
  %13 = getelementptr inbounds nuw i8, ptr %0, i64 40
  store i32 1, ptr %13, align 8, !tbaa !286
  %14 = getelementptr inbounds nuw i8, ptr %0, i64 56
  store i32 0, ptr %14, align 8, !tbaa !260
  %.not10.i = icmp eq ptr %.pr.pre, null
  br i1 %.not10.i, label %_Z32frontend_verilog_yy_flush_bufferP15yy_buffer_state.exit.thread, label %16

_Z32frontend_verilog_yy_flush_bufferP15yy_buffer_state.exit.thread: ; preds = %5
  store ptr %1, ptr %0, align 8, !tbaa !45
  %15 = getelementptr inbounds nuw i8, ptr %0, i64 52
  store i32 1, ptr %15, align 4, !tbaa !282
  br label %.thread

16:                                               ; preds = %5
  %17 = load i64, ptr @_ZL19yy_buffer_stack_top, align 8, !tbaa !35
  %18 = getelementptr inbounds nuw ptr, ptr %.pr.pre, i64 %17
  %19 = load ptr, ptr %18, align 8, !tbaa !36
  %20 = icmp eq ptr %0, %19
  br i1 %20, label %21, label %_Z32frontend_verilog_yy_flush_bufferP15yy_buffer_state.exit.thread16

21:                                               ; preds = %16
  %22 = getelementptr inbounds nuw i8, ptr %19, i64 28
  %23 = load i32, ptr %22, align 4, !tbaa !42
  store i32 %23, ptr @_ZL10yy_n_chars, align 4, !tbaa !28
  %24 = getelementptr inbounds nuw i8, ptr %19, i64 16
  %25 = load ptr, ptr %24, align 8, !tbaa !43
  store ptr %25, ptr @_ZL10yy_c_buf_p, align 8, !tbaa !44
  store ptr %25, ptr @frontend_verilog_yytext, align 8, !tbaa !44
  %26 = load ptr, ptr %19, align 8, !tbaa !45
  store ptr %26, ptr @frontend_verilog_yyin, align 8, !tbaa !30
  %27 = load i8, ptr %25, align 1, !tbaa !19
  store i8 %27, ptr @_ZL12yy_hold_char, align 1, !tbaa !19
  br label %_Z32frontend_verilog_yy_flush_bufferP15yy_buffer_state.exit.thread16

_Z32frontend_verilog_yy_flush_bufferP15yy_buffer_state.exit.thread16: ; preds = %16, %21
  store ptr %1, ptr %0, align 8, !tbaa !45
  %28 = getelementptr inbounds nuw i8, ptr %0, i64 52
  store i32 1, ptr %28, align 4, !tbaa !282
  br label %30

_Z32frontend_verilog_yy_flush_bufferP15yy_buffer_state.exit: ; preds = %2
  store ptr %1, ptr %0, align 8, !tbaa !45
  %29 = getelementptr inbounds nuw i8, ptr %0, i64 52
  store i32 1, ptr %29, align 4, !tbaa !282
  %.not = icmp eq ptr %.pr.pre, null
  br i1 %.not, label %.thread, label %30

30:                                               ; preds = %_Z32frontend_verilog_yy_flush_bufferP15yy_buffer_state.exit.thread16, %_Z32frontend_verilog_yy_flush_bufferP15yy_buffer_state.exit
  %31 = load i64, ptr @_ZL19yy_buffer_stack_top, align 8, !tbaa !35
  %32 = getelementptr inbounds nuw ptr, ptr %.pr.pre, i64 %31
  %33 = load ptr, ptr %32, align 8, !tbaa !36
  %.not12 = icmp eq ptr %0, %33
  br i1 %.not12, label %36, label %.thread

.thread:                                          ; preds = %_Z32frontend_verilog_yy_flush_bufferP15yy_buffer_state.exit.thread, %_Z32frontend_verilog_yy_flush_bufferP15yy_buffer_state.exit, %30
  %34 = getelementptr inbounds nuw i8, ptr %0, i64 44
  store i32 1, ptr %34, align 4, !tbaa !287
  %35 = getelementptr inbounds nuw i8, ptr %0, i64 48
  store i32 0, ptr %35, align 8, !tbaa !288
  br label %36

36:                                               ; preds = %.thread, %30
  %.not13 = icmp eq ptr %1, null
  br i1 %.not13, label %42, label %37

37:                                               ; preds = %36
  %38 = tail call i32 @fileno(ptr noundef nonnull %1) #42
  %39 = tail call i32 @isatty(i32 noundef %38) #42
  %40 = icmp sgt i32 %39, 0
  %41 = zext i1 %40 to i32
  br label %42

42:                                               ; preds = %36, %37
  %43 = phi i32 [ %41, %37 ], [ 0, %36 ]
  %44 = getelementptr inbounds nuw i8, ptr %0, i64 36
  store i32 %43, ptr %44, align 4, !tbaa !289
  store i32 %4, ptr %3, align 4, !tbaa !28
  ret void
}